target datalayout = "e-m:e-p270:32:32-p271:32:32-p272:64:64-i64:64-i128:128-f80:128-n8:16:32:64-S128"
target triple = "x86_64-pc-linux-gnu"

; Function Attrs: mustprogress uwtable
define void @_ZN26MLSceneGLSharedDataContext28requestMeshAttributesUpdatedEP7QThreadibRKN3vcg20GLMeshAttributesInfo13RenderingAttsINS3_9ATT_NAMESEEE(ptr noundef nonnull align 8 dereferenceable(168) %0, ptr noundef %1, i32 noundef %2, i1 noundef zeroext %3, ptr noundef nonnull align 1 dereferenceable(7) %4) #5 align 2 {
  %6 = alloca ptr, align 8
  %7 = alloca ptr, align 8
  %8 = alloca i32, align 4
  %9 = alloca i8, align 1
  %10 = alloca ptr, align 8
  %11 = alloca ptr, align 8
  store ptr %0, ptr %6, align 8
  store ptr %1, ptr %7, align 8
  store i32 %2, ptr %8, align 4
  %12 = zext i1 %3 to i8
  store i8 %12, ptr %9, align 1
  store ptr %4, ptr %10, align 8
  %13 = load ptr, ptr %6, align 8
  %14 = call noundef ptr @_ZNK7QObject6threadEv(ptr noundef nonnull align 8 dereferenceable(16) %13)
  store ptr %14, ptr %11, align 8
  %15 = load ptr, ptr %7, align 8
  %16 = load ptr, ptr %11, align 8
  %17 = icmp ne ptr %15, %16
  br i1 %17, label %18, label %23

18:                                               ; preds = %5
  %19 = load i32, ptr %8, align 4
  %20 = load i8, ptr %9, align 1
  %21 = trunc i8 %20 to i1
  %22 = load ptr, ptr %10, align 8
  call void @_ZN26MLSceneGLSharedDataContext30meshAttributesUpdatedRequestMTEibRKN3vcg20GLMeshAttributesInfo13RenderingAttsINS1_9ATT_NAMESEEE(ptr noundef nonnull align 8 dereferenceable(168) %13, i32 noundef %19, i1 noundef zeroext %21, ptr noundef nonnull align 1 dereferenceable(7) %22)
  br label %28

23:                                               ; preds = %5
  %24 = load i32, ptr %8, align 4
  %25 = load i8, ptr %9, align 1
  %26 = trunc i8 %25 to i1
  %27 = load ptr, ptr %10, align 8
  call void @_ZN26MLSceneGLSharedDataContext21meshAttributesUpdatedEibRKN3vcg20GLMeshAttributesInfo13RenderingAttsINS1_9ATT_NAMESEEE(ptr noundef nonnull align 8 dereferenceable(168) %13, i32 noundef %24, i1 noundef zeroext %26, ptr noundef nonnull align 1 dereferenceable(7) %27)
  br label %28

28:                                               ; preds = %23, %18
  ret void
}