; Function Attrs: mustprogress uwtable
define void @_ZN26MLSceneGLSharedDataContext28requestMeshAttributesUpdatedEP7QThreadibRKN3vcg20GLMeshAttributesInfo13RenderingAttsINS3_9ATT_NAMESEEE(ptr noundef nonnull align 8 dereferenceable(168) %0, ptr noundef readnone %1, i32 noundef %2, i1 noundef zeroext %3, ptr noundef nonnull align 1 dereferenceable(7) %4) local_unnamed_addr #9 align 2 {
  %6 = tail call noundef ptr @_ZNK7QObject6threadEv(ptr noundef nonnull align 8 dereferenceable(16) %0)
  %.not = icmp eq ptr %6, %1
  br i1 %.not, label %8, label %7

7:                                                ; preds = %5
  tail call void @_ZN26MLSceneGLSharedDataContext30meshAttributesUpdatedRequestMTEibRKN3vcg20GLMeshAttributesInfo13RenderingAttsINS1_9ATT_NAMESEEE(ptr noundef nonnull align 8 dereferenceable(168) %0, i32 noundef %2, i1 noundef zeroext %3, ptr noundef nonnull align 1 dereferenceable(7) %4)
  br label %9

8:                                                ; preds = %5
  tail call void @_ZN26MLSceneGLSharedDataContext21meshAttributesUpdatedEibRKN3vcg20GLMeshAttributesInfo13RenderingAttsINS1_9ATT_NAMESEEE(ptr noundef nonnull align 8 dereferenceable(168) %0, i32 noundef %2, i1 noundef zeroext %3, ptr noundef nonnull align 1 dereferenceable(7) %4)
  br label %9

9:                                                ; preds = %8, %7
  ret void
}